; Function Attrs: mustprogress uwtable
define noundef nonnull align 8 dereferenceable(8) ptr @_ZN8proxygenlsERSoRKNS_10HPACKCodecE(ptr noundef nonnull returned align 8 dereferenceable(8) %os, ptr noundef nonnull align 8 dereferenceable(408) %codec) local_unnamed_addr #3 {
entry:
  %call.i = tail call noundef nonnull align 8 dereferenceable(8) ptr @_ZStlsISt11char_traitsIcEERSt13basic_ostreamIcT_ES5_PKc(ptr noundef nonnull align 8 dereferenceable(8) %os, ptr noundef nonnull @.str)
  %add.ptr.i = getelementptr inbounds i8, ptr %codec, i64 296
  %call2.i = tail call noundef nonnull align 8 dereferenceable(8) ptr @_ZN8proxygenlsERSoRKNS_12HPACKContextE(ptr noundef nonnull align 8 dereferenceable(8) %call.i, ptr noundef nonnull align 8 dereferenceable(84) %add.ptr.i)
  %call3.i = tail call noundef nonnull align 8 dereferenceable(8) ptr @_ZStlsISt11char_traitsIcEERSt13basic_ostreamIcT_ES5_PKc(ptr noundef nonnull align 8 dereferenceable(8) %os, ptr noundef nonnull @.str.1)
  %add.ptr4.i = getelementptr inbounds i8, ptr %codec, i64 192
  %call5.i = tail call noundef nonnull align 8 dereferenceable(8) ptr @_ZN8proxygenlsERSoRKNS_12HPACKContextE(ptr noundef nonnull align 8 dereferenceable(8) %call3.i, ptr noundef nonnull align 8 dereferenceable(84) %add.ptr4.i)
  ret ptr %os
}